target datalayout = "e-m:e-p270:32:32-p271:32:32-p272:64:64-i64:64-i128:128-f80:128-n8:16:32:64-S128"
target triple = "x86_64-pc-linux-gnu"

%struct.H5C_class_t = type { i32, ptr, i32, i32, ptr, ptr, ptr, ptr, ptr, ptr, ptr, ptr, ptr, ptr }

@H5HF_init_g = external global i8, align 1
@H5_libterm_g = external global i8, align 1
@.str = private unnamed_addr constant [101 x i8] c"generated/home/dtcxzyw/WorkSpace/Projects/compilers/llvm-opt-benchmark/bench/hdf5/hdf5/src/H5HFdbg.c\00", align 1
@H5E_HEAP_g = external global i64, align 8
@H5E_CANTPROTECT_g = external global i64, align 8
@.str.43 = private unnamed_addr constant [38 x i8] c"unable to protect fractal heap header\00", align 1
@H5AC_FHEAP_HDR = external constant [1 x %struct.H5C_class_t], align 16
@H5E_PROTECT_g = external global i64, align 8
@.str.44 = private unnamed_addr constant [38 x i8] c"unable to release fractal heap header\00", align 1
@H5E_CANTLOAD_g = external global i64, align 8
@.str.58 = private unnamed_addr constant [44 x i8] c"unable to release fractal heap direct block\00", align 1
@__func__.H5HF_iblock_debug = private unnamed_addr constant [18 x i8] c"H5HF_iblock_debug\00", align 1
@.str.79 = private unnamed_addr constant [43 x i8] c"unable to load fractal heap indirect block\00", align 1

; Function Attrs: nounwind uwtable
define i32 @H5HF_iblock_debug(ptr noundef %0, i64 noundef %1, ptr noundef %2, i32 noundef %3, i32 noundef %4, i64 noundef %5, i32 noundef %6) #0 {
  %8 = alloca ptr, align 8
  %9 = alloca i64, align 8
  %10 = alloca ptr, align 8
  %11 = alloca i32, align 4
  %12 = alloca i32, align 4
  %13 = alloca i64, align 8
  %14 = alloca i32, align 4
  %15 = alloca ptr, align 8
  %16 = alloca ptr, align 8
  %17 = alloca i8, align 1
  %18 = alloca i32, align 4
  %19 = alloca i8, align 1
  store ptr %0, ptr %8, align 8, !tbaa !108
  store i64 %1, ptr %9, align 8, !tbaa !20
  store ptr %2, ptr %10, align 8, !tbaa !9
  store i32 %3, ptr %11, align 4, !tbaa !11
  store i32 %4, ptr %12, align 4, !tbaa !11
  store i64 %5, ptr %13, align 8, !tbaa !20
  store i32 %6, ptr %14, align 4, !tbaa !11
  call void @llvm.lifetime.start.p0(i64 8, ptr %15) #8
  store ptr null, ptr %15, align 8, !tbaa !22
  call void @llvm.lifetime.start.p0(i64 8, ptr %16) #8
  store ptr null, ptr %16, align 8, !tbaa !79
  call void @llvm.lifetime.start.p0(i64 1, ptr %17) #8
  store i8 0, ptr %17, align 1, !tbaa !15
  call void @llvm.lifetime.start.p0(i64 4, ptr %18) #8
  store i32 0, ptr %18, align 4, !tbaa !11
  call void @llvm.lifetime.start.p0(i64 1, ptr %19) #8
  store i8 0, ptr %19, align 1, !tbaa !15
  %20 = load i8, ptr @H5HF_init_g, align 1, !tbaa !15, !range !17, !noundef !18
  %21 = trunc i8 %20 to i1
  br i1 %21, label %26, label %22

22:                                               ; preds = %7
  %23 = load i8, ptr @H5_libterm_g, align 1, !tbaa !15, !range !17, !noundef !18
  %24 = trunc i8 %23 to i1
  %25 = xor i1 %24, true
  br label %26

26:                                               ; preds = %22, %7
  %27 = phi i1 [ false, %7 ], [ %25, %22 ]
  %28 = xor i1 %27, true
  %29 = xor i1 %28, true
  %30 = zext i1 %29 to i32
  %31 = sext i32 %30 to i64
  %32 = call i64 @llvm.expect.i64(i64 %31, i64 0)
  %33 = icmp ne i64 %32, 0
  br i1 %33, label %34, label %35

34:                                               ; preds = %26
  store i8 1, ptr @H5HF_init_g, align 1, !tbaa !15
  br label %35

35:                                               ; preds = %34, %26
  %36 = load i8, ptr @H5HF_init_g, align 1, !tbaa !15, !range !17, !noundef !18
  %37 = trunc i8 %36 to i1
  br i1 %37, label %42, label %38

38:                                               ; preds = %35
  %39 = load i8, ptr @H5_libterm_g, align 1, !tbaa !15, !range !17, !noundef !18
  %40 = trunc i8 %39 to i1
  %41 = xor i1 %40, true
  br label %42

42:                                               ; preds = %38, %35
  %43 = phi i1 [ true, %35 ], [ %41, %38 ]
  %44 = xor i1 %43, true
  %45 = xor i1 %44, true
  %46 = zext i1 %45 to i32
  %47 = sext i32 %46 to i64
  %48 = call i64 @llvm.expect.i64(i64 %47, i64 1)
  %49 = icmp ne i64 %48, 0
  br i1 %49, label %50, label %155

50:                                               ; preds = %42
  %51 = load ptr, ptr %8, align 8, !tbaa !108
  %52 = load i64, ptr %13, align 8, !tbaa !20
  %53 = call ptr @H5HF__hdr_protect(ptr noundef %51, i64 noundef %52, i32 noundef 128)
  store ptr %53, ptr %15, align 8, !tbaa !22
  %54 = icmp eq ptr null, %53
  br i1 %54, label %55, label %74

55:                                               ; preds = %50
  br label %56

56:                                               ; preds = %55
  br label %57

57:                                               ; preds = %56
  br label %58

58:                                               ; preds = %57
  %59 = load i64, ptr @H5E_HEAP_g, align 8, !tbaa !20
  %60 = load i64, ptr @H5E_CANTPROTECT_g, align 8, !tbaa !20
  %61 = call i32 (ptr, ptr, i32, i64, i64, ptr, ...) @H5E_printf_stack(ptr noundef @.str, ptr noundef @__func__.H5HF_iblock_debug, i32 noundef 682, i64 noundef %59, i64 noundef %60, ptr noundef @.str.43)
  br label %62

62:                                               ; preds = %58
  br label %63

63:                                               ; preds = %62
  store i8 1, ptr %19, align 1, !tbaa !15
  %64 = load i8, ptr %19, align 1, !tbaa !15, !range !17, !noundef !18
  %65 = trunc i8 %64 to i1
  %66 = zext i1 %65 to i8
  store i8 %66, ptr %19, align 1, !tbaa !15
  br label %67

67:                                               ; preds = %63
  br label %68

68:                                               ; preds = %67
  br label %69

69:                                               ; preds = %68
  store i32 -1, ptr %18, align 4, !tbaa !11
  br label %104

70:                                               ; No predecessors!
  br label %71

71:                                               ; preds = %70
  br label %72

72:                                               ; preds = %71
  br label %73

73:                                               ; preds = %72
  br label %74

74:                                               ; preds = %73, %50
  %75 = load ptr, ptr %15, align 8, !tbaa !22
  %76 = load i64, ptr %9, align 8, !tbaa !20
  %77 = load i32, ptr %14, align 4, !tbaa !11
  %78 = call ptr @H5HF__man_iblock_protect(ptr noundef %75, i64 noundef %76, i32 noundef %77, ptr noundef null, i32 noundef 0, i1 noundef zeroext false, i32 noundef 128, ptr noundef %17)
  store ptr %78, ptr %16, align 8, !tbaa !79
  %79 = icmp eq ptr null, %78
  br i1 %79, label %80, label %99

80:                                               ; preds = %74
  br label %81

81:                                               ; preds = %80
  br label %82

82:                                               ; preds = %81
  br label %83

83:                                               ; preds = %82
  %84 = load i64, ptr @H5E_HEAP_g, align 8, !tbaa !20
  %85 = load i64, ptr @H5E_CANTLOAD_g, align 8, !tbaa !20
  %86 = call i32 (ptr, ptr, i32, i64, i64, ptr, ...) @H5E_printf_stack(ptr noundef @.str, ptr noundef @__func__.H5HF_iblock_debug, i32 noundef 689, i64 noundef %84, i64 noundef %85, ptr noundef @.str.79)
  br label %87

87:                                               ; preds = %83
  br label %88

88:                                               ; preds = %87
  store i8 1, ptr %19, align 1, !tbaa !15
  %89 = load i8, ptr %19, align 1, !tbaa !15, !range !17, !noundef !18
  %90 = trunc i8 %89 to i1
  %91 = zext i1 %90 to i8
  store i8 %91, ptr %19, align 1, !tbaa !15
  br label %92

92:                                               ; preds = %88
  br label %93

93:                                               ; preds = %92
  br label %94

94:                                               ; preds = %93
  store i32 -1, ptr %18, align 4, !tbaa !11
  br label %104

95:                                               ; No predecessors!
  br label %96

96:                                               ; preds = %95
  br label %97

97:                                               ; preds = %96
  br label %98

98:                                               ; preds = %97
  br label %99

99:                                               ; preds = %98, %74
  %100 = load ptr, ptr %16, align 8, !tbaa !79
  %101 = load ptr, ptr %10, align 8, !tbaa !9
  %102 = load i32, ptr %11, align 4, !tbaa !11
  %103 = load i32, ptr %12, align 4, !tbaa !11
  call void @H5HF_iblock_print(ptr noundef %100, i1 noundef zeroext false, ptr noundef %101, i32 noundef %102, i32 noundef %103)
  br label %104

104:                                              ; preds = %99, %94, %69
  %105 = load ptr, ptr %16, align 8, !tbaa !79
  %106 = icmp ne ptr %105, null
  br i1 %106, label %107, label %129

107:                                              ; preds = %104
  %108 = load ptr, ptr %16, align 8, !tbaa !79
  %109 = load i8, ptr %17, align 1, !tbaa !15, !range !17, !noundef !18
  %110 = trunc i8 %109 to i1
  %111 = call i32 @H5HF__man_iblock_unprotect(ptr noundef %108, i32 noundef 0, i1 noundef zeroext %110)
  %112 = icmp slt i32 %111, 0
  br i1 %112, label %113, label %129

113:                                              ; preds = %107
  br label %114

114:                                              ; preds = %113
  br label %115

115:                                              ; preds = %114
  br label %116

116:                                              ; preds = %115
  %117 = load i64, ptr @H5E_HEAP_g, align 8, !tbaa !20
  %118 = load i64, ptr @H5E_PROTECT_g, align 8, !tbaa !20
  %119 = call i32 (ptr, ptr, i32, i64, i64, ptr, ...) @H5E_printf_stack(ptr noundef @.str, ptr noundef @__func__.H5HF_iblock_debug, i32 noundef 696, i64 noundef %117, i64 noundef %118, ptr noundef @.str.58)
  br label %120

120:                                              ; preds = %116
  br label %121

121:                                              ; preds = %120
  store i8 1, ptr %19, align 1, !tbaa !15
  %122 = load i8, ptr %19, align 1, !tbaa !15, !range !17, !noundef !18
  %123 = trunc i8 %122 to i1
  %124 = zext i1 %123 to i8
  store i8 %124, ptr %19, align 1, !tbaa !15
  br label %125

125:                                              ; preds = %121
  br label %126

126:                                              ; preds = %125
  store i32 -1, ptr %18, align 4, !tbaa !11
  br label %127

127:                                              ; preds = %126
  br label %128

128:                                              ; preds = %127
  br label %129

129:                                              ; preds = %128, %107, %104
  %130 = load ptr, ptr %15, align 8, !tbaa !22
  %131 = icmp ne ptr %130, null
  br i1 %131, label %132, label %154

132:                                              ; preds = %129
  %133 = load ptr, ptr %8, align 8, !tbaa !108
  %134 = load i64, ptr %13, align 8, !tbaa !20
  %135 = load ptr, ptr %15, align 8, !tbaa !22
  %136 = call i32 @H5AC_unprotect(ptr noundef %133, ptr noundef @H5AC_FHEAP_HDR, i64 noundef %134, ptr noundef %135, i32 noundef 0)
  %137 = icmp slt i32 %136, 0
  br i1 %137, label %138, label %154

138:                                              ; preds = %132
  br label %139

139:                                              ; preds = %138
  br label %140

140:                                              ; preds = %139
  br label %141

141:                                              ; preds = %140
  %142 = load i64, ptr @H5E_HEAP_g, align 8, !tbaa !20
  %143 = load i64, ptr @H5E_PROTECT_g, align 8, !tbaa !20
  %144 = call i32 (ptr, ptr, i32, i64, i64, ptr, ...) @H5E_printf_stack(ptr noundef @.str, ptr noundef @__func__.H5HF_iblock_debug, i32 noundef 698, i64 noundef %142, i64 noundef %143, ptr noundef @.str.44)
  br label %145

145:                                              ; preds = %141
  br label %146

146:                                              ; preds = %145
  store i8 1, ptr %19, align 1, !tbaa !15
  %147 = load i8, ptr %19, align 1, !tbaa !15, !range !17, !noundef !18
  %148 = trunc i8 %147 to i1
  %149 = zext i1 %148 to i8
  store i8 %149, ptr %19, align 1, !tbaa !15
  br label %150

150:                                              ; preds = %146
  br label %151

151:                                              ; preds = %150
  store i32 -1, ptr %18, align 4, !tbaa !11
  br label %152

152:                                              ; preds = %151
  br label %153

153:                                              ; preds = %152
  br label %154

154:                                              ; preds = %153, %132, %129
  br label %155

155:                                              ; preds = %154, %42
  %156 = load i32, ptr %18, align 4, !tbaa !11
  call void @llvm.lifetime.end.p0(i64 1, ptr %19) #8
  call void @llvm.lifetime.end.p0(i64 4, ptr %18) #8
  call void @llvm.lifetime.end.p0(i64 1, ptr %17) #8
  call void @llvm.lifetime.end.p0(i64 8, ptr %16) #8
  call void @llvm.lifetime.end.p0(i64 8, ptr %15) #8
  ret i32 %156
}