; Function Attrs: nounwind uwtable
define range(i32 -1, 1) i32 @H5HF_iblock_debug(ptr noundef %0, i64 noundef %1, ptr noundef captures(none) %2, i32 noundef %3, i32 noundef %4, i64 noundef %5, i32 noundef %6) local_unnamed_addr #0 {
  %8 = alloca i8, align 1
  call void @llvm.lifetime.start.p0(i64 1, ptr nonnull %8) #9
  store i8 0, ptr %8, align 1, !tbaa !3
  %9 = load i8, ptr @H5HF_init_g, align 1, !tbaa !3, !range !7, !noundef !8
  %10 = trunc nuw i8 %9 to i1
  %11 = load i8, ptr @H5_libterm_g, align 1, !range !7
  %12 = trunc nuw i8 %11 to i1
  %13 = select i1 %10, i1 true, i1 %12
  br i1 %13, label %14, label %.thread, !prof !9

.thread:                                          ; preds = %7
  store i8 1, ptr @H5HF_init_g, align 1, !tbaa !3
  br label %17

14:                                               ; preds = %7
  %15 = xor i1 %12, true
  %16 = select i1 %10, i1 true, i1 %15
  br i1 %16, label %17, label %45, !prof !100

17:                                               ; preds = %.thread, %14
  %18 = tail call ptr @H5HF__hdr_protect(ptr noundef %0, i64 noundef %5, i32 noundef 128) #9
  %19 = icmp eq ptr %18, null
  br i1 %19, label %.thread33, label %23

.thread33:                                        ; preds = %17
  %20 = load i64, ptr @H5E_HEAP_g, align 8, !tbaa !11
  %21 = load i64, ptr @H5E_CANTPROTECT_g, align 8, !tbaa !11
  %22 = tail call i32 (ptr, ptr, i32, i64, i64, ptr, ...) @H5E_printf_stack(ptr noundef nonnull @.str, ptr noundef nonnull @__func__.H5HF_iblock_debug, i32 noundef 682, i64 noundef %20, i64 noundef %21, ptr noundef nonnull @.str.43) #9
  br label %45

23:                                               ; preds = %17
  %24 = call ptr @H5HF__man_iblock_protect(ptr noundef nonnull %18, i64 noundef %1, i32 noundef %6, ptr noundef null, i32 noundef 0, i1 noundef zeroext false, i32 noundef 128, ptr noundef nonnull %8) #9
  %25 = icmp eq ptr %24, null
  br i1 %25, label %35, label %26

26:                                               ; preds = %23
  call void @H5HF_iblock_print(ptr noundef nonnull %24, i1 noundef zeroext false, ptr noundef %2, i32 noundef %3, i32 noundef %4)
  %27 = load i8, ptr %8, align 1, !tbaa !3, !range !7, !noundef !8
  %28 = trunc nuw i8 %27 to i1
  %29 = call i32 @H5HF__man_iblock_unprotect(ptr noundef nonnull %24, i32 noundef 0, i1 noundef zeroext %28) #9
  %30 = icmp slt i32 %29, 0
  br i1 %30, label %31, label %.thread30

31:                                               ; preds = %26
  %32 = load i64, ptr @H5E_HEAP_g, align 8, !tbaa !11
  %33 = load i64, ptr @H5E_PROTECT_g, align 8, !tbaa !11
  %34 = call i32 (ptr, ptr, i32, i64, i64, ptr, ...) @H5E_printf_stack(ptr noundef nonnull @.str, ptr noundef nonnull @__func__.H5HF_iblock_debug, i32 noundef 696, i64 noundef %32, i64 noundef %33, ptr noundef nonnull @.str.58) #9
  br label %.thread30

35:                                               ; preds = %23
  %36 = load i64, ptr @H5E_HEAP_g, align 8, !tbaa !11
  %37 = load i64, ptr @H5E_CANTLOAD_g, align 8, !tbaa !11
  %38 = call i32 (ptr, ptr, i32, i64, i64, ptr, ...) @H5E_printf_stack(ptr noundef nonnull @.str, ptr noundef nonnull @__func__.H5HF_iblock_debug, i32 noundef 689, i64 noundef %36, i64 noundef %37, ptr noundef nonnull @.str.79) #9
  br label %.thread30

.thread30:                                        ; preds = %26, %31, %35
  %.232 = phi i32 [ -1, %35 ], [ 0, %26 ], [ -1, %31 ]
  %39 = call i32 @H5AC_unprotect(ptr noundef %0, ptr noundef nonnull @H5AC_FHEAP_HDR, i64 noundef %5, ptr noundef nonnull %18, i32 noundef 0) #9
  %40 = icmp slt i32 %39, 0
  br i1 %40, label %41, label %45

41:                                               ; preds = %.thread30
  %42 = load i64, ptr @H5E_HEAP_g, align 8, !tbaa !11
  %43 = load i64, ptr @H5E_PROTECT_g, align 8, !tbaa !11
  %44 = call i32 (ptr, ptr, i32, i64, i64, ptr, ...) @H5E_printf_stack(ptr noundef nonnull @.str, ptr noundef nonnull @__func__.H5HF_iblock_debug, i32 noundef 698, i64 noundef %42, i64 noundef %43, ptr noundef nonnull @.str.44) #9
  br label %45

45:                                               ; preds = %.thread33, %.thread30, %41, %14
  %.0 = phi i32 [ -1, %41 ], [ %.232, %.thread30 ], [ 0, %14 ], [ -1, %.thread33 ]
  call void @llvm.lifetime.end.p0(i64 1, ptr nonnull %8) #9
  ret i32 %.0
}